; Function Attrs: mustprogress uwtable
define dso_local void @_ZN3tev18drawTextWithShadowEP10NVGcontextffNSt3__112basic_stringIcNS2_11char_traitsIcEENS2_9allocatorIcEEEEf(ptr noundef %0, float noundef %1, float noundef %2, ptr noundef %3, float noundef %4) local_unnamed_addr #7 {
_ZN7nanogui5ColorC2Eff.exit:
  tail call void @nvgSave(ptr noundef %0)
  tail call void @nvgFontBlur(ptr noundef %0, float noundef 2.000000e+00)
  %.sroa.3.12.vec.insert = insertelement <2 x float> <float 0.000000e+00, float poison>, float %4, i64 1
  tail call void @nvgFillColor(ptr noundef %0, <2 x float> zeroinitializer, <2 x float> %.sroa.3.12.vec.insert)
  %5 = fadd float %1, 1.000000e+00
  %6 = fadd float %2, 1.000000e+00
  %7 = load i8, ptr %3, align 8
  %8 = and i8 %7, 1
  %.not.i.i.i = icmp eq i8 %8, 0
  %9 = getelementptr inbounds i8, ptr %3, i64 16
  %10 = load ptr, ptr %9, align 8
  %11 = getelementptr inbounds i8, ptr %3, i64 1
  %12 = select i1 %.not.i.i.i, ptr %11, ptr %10
  %13 = tail call float @nvgText(ptr noundef %0, float noundef %5, float noundef %6, ptr noundef %12, ptr noundef null)
  tail call void @nvgRestore(ptr noundef %0)
  %14 = load i8, ptr %3, align 8
  %15 = and i8 %14, 1
  %.not.i.i.i11 = icmp eq i8 %15, 0
  %16 = load ptr, ptr %9, align 8
  %17 = select i1 %.not.i.i.i11, ptr %11, ptr %16
  %18 = tail call float @nvgText(ptr noundef %0, float noundef %1, float noundef %2, ptr noundef %17, ptr noundef null)
  ret void
}